target datalayout = "e-m:e-p270:32:32-p271:32:32-p272:64:64-i64:64-i128:128-f80:128-n8:16:32:64-S128"
target triple = "x86_64-pc-linux-gnu"

%struct.expert_field = type { i32, i32 }

@hf_application_parameter = internal global i32 0, align 4
@hf_application_parameter_length = internal global i32 0, align 4
@hf_application_parameter_data = internal global i32 0, align 4
@hf_gpp_application_parameter_id = internal global i32 0, align 4
@hf_gpp_application_parameter_data_max_list_count = internal global i32 0, align 4
@hf_gpp_application_parameter_data_list_start_offset = internal global i32 0, align 4
@hf_gpp_application_parameter_data_reserved_7 = internal global i32 0, align 4
@hf_gpp_application_parameter_data_notification_status = internal global i32 0, align 4
@hf_gpp_application_parameter_data_instance_id = internal global i32 0, align 4
@hf_gpp_application_parameter_data_listing_size = internal global i32 0, align 4
@ett_obex_application_parameters = internal global i32 0, align 4
@ei_application_parameter_length_bad = internal global %struct.expert_field zeroinitializer, align 4
@.str.702 = private unnamed_addr constant [8 x i8] c"Unknown\00", align 1
@.str.776 = private unnamed_addr constant [14 x i8] c"Parameter: %s\00", align 1
@.str.778 = private unnamed_addr constant [83 x i8] c"According to the specification this parameter length should be %i, but there is %i\00", align 1
@dissect_obex_application_parameter_bt_gpp.required_length_map = internal global [6 x i32] [i32 2, i32 2, i32 1, i32 1, i32 0, i32 2], align 16

; Function Attrs: null_pointer_is_valid sspstrong uwtable
define internal i32 @dissect_obex_application_parameter_bt_gpp(ptr noundef %0, ptr noundef %1, ptr noundef %2, ptr noundef %3) #0 {
  %5 = alloca ptr, align 8
  %6 = alloca ptr, align 8
  %7 = alloca ptr, align 8
  %8 = alloca ptr, align 8
  %9 = alloca ptr, align 8
  %10 = alloca ptr, align 8
  %11 = alloca ptr, align 8
  %12 = alloca i8, align 1
  %13 = alloca i32, align 4
  %14 = alloca i32, align 4
  %15 = alloca i32, align 4
  store ptr %0, ptr %5, align 8
  store ptr %1, ptr %6, align 8
  store ptr %2, ptr %7, align 8
  store ptr %3, ptr %8, align 8
  call void @llvm.lifetime.start.p0(i64 8, ptr %9) #7
  call void @llvm.lifetime.start.p0(i64 8, ptr %10) #7
  call void @llvm.lifetime.start.p0(i64 8, ptr %11) #7
  call void @llvm.lifetime.start.p0(i64 1, ptr %12) #7
  call void @llvm.lifetime.start.p0(i64 4, ptr %13) #7
  store i32 0, ptr %13, align 4
  call void @llvm.lifetime.start.p0(i64 4, ptr %14) #7
  call void @llvm.lifetime.start.p0(i64 4, ptr %15) #7
  %16 = load ptr, ptr %5, align 8
  %17 = call i32 @tvb_reported_length(ptr noundef %16)
  store i32 %17, ptr %14, align 4
  br label %18

18:                                               ; preds = %147, %4
  %19 = load i32, ptr %14, align 4
  %20 = icmp sgt i32 %19, 0
  br i1 %20, label %21, label %155

21:                                               ; preds = %18
  %22 = load ptr, ptr %5, align 8
  %23 = load i32, ptr %13, align 4
  %24 = call zeroext i8 @tvb_get_uint8(ptr noundef %22, i32 noundef %23)
  store i8 %24, ptr %12, align 1
  %25 = load ptr, ptr %5, align 8
  %26 = load i32, ptr %13, align 4
  %27 = add i32 %26, 1
  %28 = call zeroext i8 @tvb_get_uint8(ptr noundef %25, i32 noundef %27)
  %29 = zext i8 %28 to i32
  store i32 %29, ptr %15, align 4
  %30 = load ptr, ptr %7, align 8
  %31 = load i32, ptr @hf_application_parameter, align 4
  %32 = load ptr, ptr %5, align 8
  %33 = load i32, ptr %13, align 4
  %34 = load i32, ptr %15, align 4
  %35 = add i32 %34, 2
  %36 = load i8, ptr %12, align 1
  %37 = zext i8 %36 to i32
  %38 = call ptr @val_to_str_const(i32 noundef %37, ptr noundef @gpp_application_parameters_vals, ptr noundef @.str.702)
  %39 = call ptr (ptr, i32, ptr, i32, i32, ptr, ...) @proto_tree_add_none_format(ptr noundef %30, i32 noundef %31, ptr noundef %32, i32 noundef %33, i32 noundef %35, ptr noundef @.str.776, ptr noundef %38)
  store ptr %39, ptr %10, align 8
  %40 = load ptr, ptr %10, align 8
  %41 = load i32, ptr @ett_obex_application_parameters, align 4
  %42 = call ptr @proto_item_add_subtree(ptr noundef %40, i32 noundef %41)
  store ptr %42, ptr %11, align 8
  %43 = load ptr, ptr %11, align 8
  %44 = load i32, ptr @hf_gpp_application_parameter_id, align 4
  %45 = load ptr, ptr %5, align 8
  %46 = load i32, ptr %13, align 4
  %47 = call ptr @proto_tree_add_item(ptr noundef %43, i32 noundef %44, ptr noundef %45, i32 noundef %46, i32 noundef 1, i32 noundef 0)
  %48 = load i32, ptr %13, align 4
  %49 = add i32 %48, 1
  store i32 %49, ptr %13, align 4
  %50 = load ptr, ptr %11, align 8
  %51 = load i32, ptr @hf_application_parameter_length, align 4
  %52 = load ptr, ptr %5, align 8
  %53 = load i32, ptr %13, align 4
  %54 = call ptr @proto_tree_add_item(ptr noundef %50, i32 noundef %51, ptr noundef %52, i32 noundef %53, i32 noundef 1, i32 noundef 0)
  store ptr %54, ptr %9, align 8
  %55 = load i32, ptr %13, align 4
  %56 = add i32 %55, 1
  store i32 %56, ptr %13, align 4
  %57 = load i8, ptr %12, align 1
  %58 = zext i8 %57 to i32
  %59 = icmp sge i32 %58, 65
  br i1 %59, label %60, label %101

60:                                               ; preds = %21
  %61 = load i8, ptr %12, align 1
  %62 = zext i8 %61 to i32
  %63 = sub i32 %62, 65
  %64 = trunc i32 %63 to i8
  %65 = zext i8 %64 to i64
  %66 = icmp ult i64 %65, 6
  br i1 %66, label %67, label %101

67:                                               ; preds = %60
  %68 = load i8, ptr %12, align 1
  %69 = zext i8 %68 to i32
  %70 = sub i32 %69, 65
  %71 = sext i32 %70 to i64
  %72 = getelementptr [6 x i32], ptr @dissect_obex_application_parameter_bt_gpp.required_length_map, i64 0, i64 %71
  %73 = load i32, ptr %72, align 4
  %74 = icmp ne i32 %73, -1
  br i1 %74, label %75, label %101

75:                                               ; preds = %67
  %76 = load i8, ptr %12, align 1
  %77 = zext i8 %76 to i32
  %78 = sub i32 %77, 65
  %79 = sext i32 %78 to i64
  %80 = getelementptr [6 x i32], ptr @dissect_obex_application_parameter_bt_gpp.required_length_map, i64 0, i64 %79
  %81 = load i32, ptr %80, align 4
  %82 = load i32, ptr %15, align 4
  %83 = icmp ne i32 %81, %82
  br i1 %83, label %84, label %101

84:                                               ; preds = %75
  %85 = load ptr, ptr %11, align 8
  %86 = load i32, ptr @hf_application_parameter_data, align 4
  %87 = load ptr, ptr %5, align 8
  %88 = load i32, ptr %13, align 4
  %89 = load i32, ptr %15, align 4
  %90 = call ptr @proto_tree_add_item(ptr noundef %85, i32 noundef %86, ptr noundef %87, i32 noundef %88, i32 noundef %89, i32 noundef 0)
  %91 = load ptr, ptr %6, align 8
  %92 = load ptr, ptr %9, align 8
  %93 = load i8, ptr %12, align 1
  %94 = zext i8 %93 to i32
  %95 = sub i32 %94, 65
  %96 = sext i32 %95 to i64
  %97 = getelementptr [6 x i32], ptr @dissect_obex_application_parameter_bt_gpp.required_length_map, i64 0, i64 %96
  %98 = load i32, ptr %97, align 4
  %99 = load i32, ptr %15, align 4
  %100 = call ptr (ptr, ptr, ptr, ptr, ...) @expert_add_info_format(ptr noundef %91, ptr noundef %92, ptr noundef @ei_application_parameter_length_bad, ptr noundef @.str.778, i32 noundef %98, i32 noundef %99)
  br label %147

101:                                              ; preds = %75, %67, %60, %21
  %102 = load i8, ptr %12, align 1
  %103 = zext i8 %102 to i32
  switch i32 %103, label %139 [
    i32 65, label %104
    i32 66, label %110
    i32 67, label %116
    i32 68, label %127
    i32 70, label %133
  ]

104:                                              ; preds = %101
  %105 = load ptr, ptr %11, align 8
  %106 = load i32, ptr @hf_gpp_application_parameter_data_max_list_count, align 4
  %107 = load ptr, ptr %5, align 8
  %108 = load i32, ptr %13, align 4
  %109 = call ptr @proto_tree_add_item(ptr noundef %105, i32 noundef %106, ptr noundef %107, i32 noundef %108, i32 noundef 2, i32 noundef 0)
  br label %146

110:                                              ; preds = %101
  %111 = load ptr, ptr %11, align 8
  %112 = load i32, ptr @hf_gpp_application_parameter_data_list_start_offset, align 4
  %113 = load ptr, ptr %5, align 8
  %114 = load i32, ptr %13, align 4
  %115 = call ptr @proto_tree_add_item(ptr noundef %111, i32 noundef %112, ptr noundef %113, i32 noundef %114, i32 noundef 2, i32 noundef 0)
  br label %146

116:                                              ; preds = %101
  %117 = load ptr, ptr %11, align 8
  %118 = load i32, ptr @hf_gpp_application_parameter_data_reserved_7, align 4
  %119 = load ptr, ptr %5, align 8
  %120 = load i32, ptr %13, align 4
  %121 = call ptr @proto_tree_add_item(ptr noundef %117, i32 noundef %118, ptr noundef %119, i32 noundef %120, i32 noundef 1, i32 noundef 0)
  %122 = load ptr, ptr %11, align 8
  %123 = load i32, ptr @hf_gpp_application_parameter_data_notification_status, align 4
  %124 = load ptr, ptr %5, align 8
  %125 = load i32, ptr %13, align 4
  %126 = call ptr @proto_tree_add_item(ptr noundef %122, i32 noundef %123, ptr noundef %124, i32 noundef %125, i32 noundef 1, i32 noundef 0)
  br label %146

127:                                              ; preds = %101
  %128 = load ptr, ptr %11, align 8
  %129 = load i32, ptr @hf_gpp_application_parameter_data_instance_id, align 4
  %130 = load ptr, ptr %5, align 8
  %131 = load i32, ptr %13, align 4
  %132 = call ptr @proto_tree_add_item(ptr noundef %128, i32 noundef %129, ptr noundef %130, i32 noundef %131, i32 noundef 1, i32 noundef 0)
  br label %146

133:                                              ; preds = %101
  %134 = load ptr, ptr %11, align 8
  %135 = load i32, ptr @hf_gpp_application_parameter_data_listing_size, align 4
  %136 = load ptr, ptr %5, align 8
  %137 = load i32, ptr %13, align 4
  %138 = call ptr @proto_tree_add_item(ptr noundef %134, i32 noundef %135, ptr noundef %136, i32 noundef %137, i32 noundef 2, i32 noundef 0)
  br label %146

139:                                              ; preds = %101
  %140 = load ptr, ptr %11, align 8
  %141 = load i32, ptr @hf_application_parameter_data, align 4
  %142 = load ptr, ptr %5, align 8
  %143 = load i32, ptr %13, align 4
  %144 = load i32, ptr %15, align 4
  %145 = call ptr @proto_tree_add_item(ptr noundef %140, i32 noundef %141, ptr noundef %142, i32 noundef %143, i32 noundef %144, i32 noundef 0)
  br label %146

146:                                              ; preds = %139, %133, %127, %116, %110, %104
  br label %147

147:                                              ; preds = %146, %84
  %148 = load i32, ptr %15, align 4
  %149 = add i32 2, %148
  %150 = load i32, ptr %14, align 4
  %151 = sub i32 %150, %149
  store i32 %151, ptr %14, align 4
  %152 = load i32, ptr %15, align 4
  %153 = load i32, ptr %13, align 4
  %154 = add i32 %153, %152
  store i32 %154, ptr %13, align 4
  br label %18, !llvm.loop !14

155:                                              ; preds = %18
  %156 = load i32, ptr %13, align 4
  call void @llvm.lifetime.end.p0(i64 4, ptr %15) #7
  call void @llvm.lifetime.end.p0(i64 4, ptr %14) #7
  call void @llvm.lifetime.end.p0(i64 4, ptr %13) #7
  call void @llvm.lifetime.end.p0(i64 1, ptr %12) #7
  call void @llvm.lifetime.end.p0(i64 8, ptr %11) #7
  call void @llvm.lifetime.end.p0(i64 8, ptr %10) #7
  call void @llvm.lifetime.end.p0(i64 8, ptr %9) #7
  ret i32 %156
}