; Function Attrs: null_pointer_is_valid sspstrong uwtable
define internal i32 @dissect_obex_application_parameter_bt_gpp(ptr noundef %0, ptr noundef %1, ptr noundef %2, ptr readnone captures(none) %3) #0 {
  %5 = tail call i32 @tvb_reported_length(ptr noundef %0)
  %6 = icmp sgt i32 %5, 0
  br i1 %6, label %.lr.ph, label %._crit_edge

.lr.ph:                                           ; preds = %4, %57
  %.065 = phi i32 [ %59, %57 ], [ 0, %4 ]
  %.06064 = phi i32 [ %58, %57 ], [ %5, %4 ]
  %7 = tail call zeroext i8 @tvb_get_uint8(ptr noundef %0, i32 noundef %.065)
  %8 = add i32 %.065, 1
  %9 = tail call zeroext i8 @tvb_get_uint8(ptr noundef %0, i32 noundef %8)
  %10 = zext i8 %9 to i32
  %11 = load i32, ptr @hf_application_parameter, align 4
  %12 = add nuw nsw i32 %10, 2
  %13 = zext i8 %7 to i32
  %14 = tail call ptr @val_to_str_const(i32 noundef %13, ptr noundef nonnull @gpp_application_parameters_vals, ptr noundef nonnull @.str.702)
  %15 = tail call ptr (ptr, i32, ptr, i32, i32, ptr, ...) @proto_tree_add_none_format(ptr noundef %2, i32 noundef %11, ptr noundef %0, i32 noundef %.065, i32 noundef %12, ptr noundef nonnull @.str.776, ptr noundef %14)
  %16 = load i32, ptr @ett_obex_application_parameters, align 4
  %17 = tail call ptr @proto_item_add_subtree(ptr noundef %15, i32 noundef %16)
  %18 = load i32, ptr @hf_gpp_application_parameter_id, align 4
  %19 = tail call ptr @proto_tree_add_item(ptr noundef %17, i32 noundef %18, ptr noundef %0, i32 noundef %.065, i32 noundef 1, i32 noundef 0)
  %20 = load i32, ptr @hf_application_parameter_length, align 4
  %21 = tail call ptr @proto_tree_add_item(ptr noundef %17, i32 noundef %20, ptr noundef %0, i32 noundef %8, i32 noundef 1, i32 noundef 0)
  %22 = add i32 %.065, 2
  %23 = icmp ugt i8 %7, 64
  br i1 %23, label %24, label %36

24:                                               ; preds = %.lr.ph
  %25 = add nsw i32 %13, -65
  %26 = and i32 %25, 254
  %27 = icmp samesign ult i32 %26, 6
  br i1 %27, label %28, label %36

28:                                               ; preds = %24
  %29 = zext nneg i32 %25 to i64
  %30 = getelementptr [6 x i32], ptr @dissect_obex_application_parameter_bt_gpp.required_length_map, i64 0, i64 %29
  %31 = load i32, ptr %30, align 4
  %.not = icmp eq i32 %31, %10
  br i1 %.not, label %36, label %32

32:                                               ; preds = %28
  %33 = load i32, ptr @hf_application_parameter_data, align 4
  %34 = tail call ptr @proto_tree_add_item(ptr noundef %17, i32 noundef %33, ptr noundef %0, i32 noundef %22, i32 noundef %10, i32 noundef 0)
  %35 = tail call ptr (ptr, ptr, ptr, ptr, ...) @expert_add_info_format(ptr noundef %1, ptr noundef %21, ptr noundef nonnull @ei_application_parameter_length_bad, ptr noundef nonnull @.str.778, i32 noundef %31, i32 noundef %10)
  br label %57

36:                                               ; preds = %28, %24, %.lr.ph
  switch i8 %7, label %54 [
    i8 65, label %37
    i8 66, label %40
    i8 67, label %43
    i8 68, label %48
    i8 70, label %51
  ]

37:                                               ; preds = %36
  %38 = load i32, ptr @hf_gpp_application_parameter_data_max_list_count, align 4
  %39 = tail call ptr @proto_tree_add_item(ptr noundef %17, i32 noundef %38, ptr noundef %0, i32 noundef %22, i32 noundef 2, i32 noundef 0)
  br label %57

40:                                               ; preds = %36
  %41 = load i32, ptr @hf_gpp_application_parameter_data_list_start_offset, align 4
  %42 = tail call ptr @proto_tree_add_item(ptr noundef %17, i32 noundef %41, ptr noundef %0, i32 noundef %22, i32 noundef 2, i32 noundef 0)
  br label %57

43:                                               ; preds = %36
  %44 = load i32, ptr @hf_gpp_application_parameter_data_reserved_7, align 4
  %45 = tail call ptr @proto_tree_add_item(ptr noundef %17, i32 noundef %44, ptr noundef %0, i32 noundef %22, i32 noundef 1, i32 noundef 0)
  %46 = load i32, ptr @hf_gpp_application_parameter_data_notification_status, align 4
  %47 = tail call ptr @proto_tree_add_item(ptr noundef %17, i32 noundef %46, ptr noundef %0, i32 noundef %22, i32 noundef 1, i32 noundef 0)
  br label %57

48:                                               ; preds = %36
  %49 = load i32, ptr @hf_gpp_application_parameter_data_instance_id, align 4
  %50 = tail call ptr @proto_tree_add_item(ptr noundef %17, i32 noundef %49, ptr noundef %0, i32 noundef %22, i32 noundef 1, i32 noundef 0)
  br label %57

51:                                               ; preds = %36
  %52 = load i32, ptr @hf_gpp_application_parameter_data_listing_size, align 4
  %53 = tail call ptr @proto_tree_add_item(ptr noundef %17, i32 noundef %52, ptr noundef %0, i32 noundef %22, i32 noundef 2, i32 noundef 0)
  br label %57

54:                                               ; preds = %36
  %55 = load i32, ptr @hf_application_parameter_data, align 4
  %56 = tail call ptr @proto_tree_add_item(ptr noundef %17, i32 noundef %55, ptr noundef %0, i32 noundef %22, i32 noundef %10, i32 noundef 0)
  br label %57

57:                                               ; preds = %37, %40, %43, %48, %51, %54, %32
  %58 = sub nsw i32 %.06064, %12
  %59 = add i32 %22, %10
  %60 = icmp sgt i32 %58, 0
  br i1 %60, label %.lr.ph, label %._crit_edge, !llvm.loop !20

._crit_edge:                                      ; preds = %57, %4
  %.0.lcssa = phi i32 [ 0, %4 ], [ %59, %57 ]
  ret i32 %.0.lcssa
}